; Function Attrs: mustprogress nounwind uwtable
define dso_local void @_ZN5clang13ASTDeclWriter22VisitObjCContainerDeclEPNS_17ObjCContainerDeclE(ptr noundef nonnull align 8 dereferenceable(241) %0, ptr noundef nonnull %1) local_unnamed_addr #0 align 2 {
  tail call void @_ZN5clang13ASTDeclWriter14VisitNamedDeclEPNS_9NamedDeclE(ptr noundef nonnull align 8 dereferenceable(241) %0, ptr noundef %1)
  %3 = getelementptr inbounds nuw i8, ptr %1, i64 60
  %.sroa.0.0.copyload.i = load i32, ptr %3, align 4
  %4 = getelementptr inbounds nuw i8, ptr %0, i64 24
  %5 = load ptr, ptr %4, align 8
  %6 = getelementptr inbounds nuw i8, ptr %0, i64 32
  %7 = load ptr, ptr %6, align 8
  tail call void @_ZN5clang9ASTWriter17AddSourceLocationENS_14SourceLocationERN4llvm15SmallVectorImplImEEPNS_22SourceLocationSequenceE(ptr noundef nonnull align 8 dereferenceable(3340) %5, i32 %.sroa.0.0.copyload.i, ptr noundef nonnull align 8 dereferenceable(16) %7, ptr noundef null) #19
  %8 = getelementptr inbounds nuw i8, ptr %1, i64 80
  %.sroa.0.0.copyload.i5 = load i64, ptr %8, align 8
  %9 = load ptr, ptr %4, align 8
  %10 = load ptr, ptr %6, align 8
  tail call void @_ZN5clang9ASTWriter14AddSourceRangeENS_11SourceRangeERN4llvm15SmallVectorImplImEEPNS_22SourceLocationSequenceE(ptr noundef nonnull align 8 dereferenceable(3340) %9, i64 %.sroa.0.0.copyload.i5, ptr noundef nonnull align 8 dereferenceable(16) %10, ptr noundef null) #19
  ret void
}